(dp1
(I4
I-3
tp2
F0
s(I2
I-1
tp3
F0
s(I1
I3
tp4
F120
s(I-1
I0
tp5
F20
s(I-2
I-4
tp6
F170
s(I3
I0
tp7
F0
s(I2
I-3
tp8
F0
s(I-4
I0
tp9
F0
s(I-3
I-4
tp10
F270
s(I2
I1
tp11
F150
s(I-4
I2
tp12
F0
s(I0
I0
tp13
F160
s(I3
I-1
tp14
F0
s(I-2
I2
tp15
F0
s(I-3
I3
tp16
F0
s(I0
I3
tp17
F0
s(I-1
I-4
tp18
F100
s(I1
I-1
tp19
F0
s(I4
I-1
tp20
F0
s(I3
I-4
tp21
F0
s(I4
I0
tp22
F0
s(I1
I2
tp23
F160
s(I3
I-2
tp24
F0
s(I-1
I1
tp25
F0
s(I3
I3
tp26
F300
s(I2
I-2
tp27
F0
s(I2
I0
tp28
F10
s(I1
I-2
tp29
F0
s(I4
I4
tp30
F400
s(I-2
I0
tp31
F10
s(I-4
I-4
tp32
F400
s(I-4
I3
tp33
F0
s(I4
I-2
tp34
F0
s(I-3
I-1
tp35
F110
s(I-3
I2
tp36
F0
s(I-3
I-3
tp37
F300
s(I2
I2
tp38
F240
s(I-4
I-3
tp39
F240
s(I1
I-3
tp40
F0
s(I4
I1
tp41
F100
s(I1
I1
tp42
F200
s(I0
I-2
tp43
F10
s(I0
I-1
tp44
F40
s(I3
I2
tp45
F180
s(I-1
I2
tp46
F0
s(I3
I-3
tp47
F0
s(I-2
I-2
tp48
F240
s(I-2
I-1
tp49
F150
s(I0
I4
tp50
F0
s(I-2
I1
tp51
F0
s(I1
I4
tp52
F100
s(I-1
I-2
tp53
F160
s(I-3
I1
tp54
F0
s(I-2
I-3
tp55
F200
s(I4
I-4
tp56
F0
s(I2
I3
tp57
F200
s(I-1
I-3
tp58
F120
s(I1
I-4
tp59
F0
s(I-1
I4
tp60
F0
s(I2
I-4
tp61
F0
s(I4
I2
tp62
F140
s(I1
I0
tp63
F20
s(I-3
I-2
tp64
F180
s(I-4
I-2
tp65
F140
s(I0
I1
tp66
F40
s(I-4
I4
tp67
F0
s(I-4
I-1
tp68
F100
s(I-1
I3
tp69
F0
s(I0
I-3
tp70
F0
s(I3
I1
tp71
F110
s(I-1
I-1
tp72
F200
s(I-3
I0
tp73
F0
s(I0
I2
tp74
F10
s(I-2
I3
tp75
F0
s(I-4
I1
tp76
F0
s(I4
I3
tp77
F240
s(I-2
I4
tp78
F0
s(I-3
I4
tp79
F0
s(I0
I-4
tp80
F0
s(I3
I4
tp81
F270
s(I2
I4
tp82
F170
s.